target datalayout = "e-m:e-p270:32:32-p271:32:32-p272:64:64-i64:64-i128:128-f80:128-n8:16:32:64-S128"
target triple = "x86_64-pc-linux-gnu"

%struct.CharRange = type { i32, i32, ptr, ptr, ptr }

; Function Attrs: nounwind uwtable
define dso_local void @cr_free(ptr noundef %0) #0 {
  %2 = alloca ptr, align 8
  store ptr %0, ptr %2, align 8
  %3 = load ptr, ptr %2, align 8
  %4 = getelementptr inbounds %struct.CharRange, ptr %3, i32 0, i32 4
  %5 = load ptr, ptr %4, align 8
  %6 = load ptr, ptr %2, align 8
  %7 = getelementptr inbounds %struct.CharRange, ptr %6, i32 0, i32 3
  %8 = load ptr, ptr %7, align 8
  %9 = load ptr, ptr %2, align 8
  %10 = getelementptr inbounds %struct.CharRange, ptr %9, i32 0, i32 2
  %11 = load ptr, ptr %10, align 8
  %12 = call ptr %5(ptr noundef %8, ptr noundef %11, i64 noundef 0)
  ret void
}

; Function Attrs: nounwind uwtable
define dso_local i32 @cr_union1(ptr noundef %0, ptr noundef %1, i32 noundef %2) #0 {
  %4 = alloca ptr, align 8
  %5 = alloca ptr, align 8
  %6 = alloca i32, align 4
  %7 = alloca %struct.CharRange, align 8
  %8 = alloca i32, align 4
  store ptr %0, ptr %4, align 8
  store ptr %1, ptr %5, align 8
  store i32 %2, ptr %6, align 4
  %9 = load ptr, ptr %4, align 8
  call void @llvm.memcpy.p0.p0.i64(ptr align 8 %7, ptr align 8 %9, i64 32, i1 false)
  %10 = load ptr, ptr %4, align 8
  %11 = getelementptr inbounds %struct.CharRange, ptr %10, i32 0, i32 0
  store i32 0, ptr %11, align 8
  %12 = load ptr, ptr %4, align 8
  %13 = getelementptr inbounds %struct.CharRange, ptr %12, i32 0, i32 1
  store i32 0, ptr %13, align 4
  %14 = load ptr, ptr %4, align 8
  %15 = getelementptr inbounds %struct.CharRange, ptr %14, i32 0, i32 2
  store ptr null, ptr %15, align 8
  %16 = load ptr, ptr %4, align 8
  %17 = getelementptr inbounds %struct.CharRange, ptr %7, i32 0, i32 2
  %18 = load ptr, ptr %17, align 8
  %19 = getelementptr inbounds %struct.CharRange, ptr %7, i32 0, i32 0
  %20 = load i32, ptr %19, align 8
  %21 = load ptr, ptr %5, align 8
  %22 = load i32, ptr %6, align 4
  %23 = call i32 @cr_op(ptr noundef %16, ptr noundef %18, i32 noundef %20, ptr noundef %21, i32 noundef %22, i32 noundef 0)
  store i32 %23, ptr %8, align 4
  call void @cr_free(ptr noundef %7)
  %24 = load i32, ptr %8, align 4
  ret i32 %24
}