; Function Attrs: nounwind uwtable
define dso_local noundef i32 @cr_union1(ptr nocapture noundef %0, ptr nocapture noundef readonly %1, i32 noundef %2) local_unnamed_addr #5 {
  %.sroa.0.0.copyload = load i32, ptr %0, align 8
  %.sroa.27.0..sroa_idx = getelementptr inbounds i8, ptr %0, i64 8
  %.sroa.27.0.copyload = load ptr, ptr %.sroa.27.0..sroa_idx, align 8
  %.sroa.4.0..sroa_idx = getelementptr inbounds i8, ptr %0, i64 16
  %.sroa.4.0.copyload = load ptr, ptr %.sroa.4.0..sroa_idx, align 8
  %.sroa.5.0..sroa_idx = getelementptr inbounds i8, ptr %0, i64 24
  %.sroa.5.0.copyload = load ptr, ptr %.sroa.5.0..sroa_idx, align 8
  tail call void @llvm.memset.p0.i64(ptr noundef nonnull align 8 dereferenceable(16) %0, i8 0, i64 16, i1 false)
  %4 = tail call i32 @cr_op(ptr noundef nonnull %0, ptr noundef %.sroa.27.0.copyload, i32 noundef %.sroa.0.0.copyload, ptr noundef %1, i32 noundef %2, i32 noundef 0), !range !16
  %5 = tail call ptr %.sroa.5.0.copyload(ptr noundef %.sroa.4.0.copyload, ptr noundef %.sroa.27.0.copyload, i64 noundef 0) #20
  ret i32 %4
}